target datalayout = "e-m:e-p270:32:32-p271:32:32-p272:64:64-i64:64-i128:128-f80:128-n8:16:32:64-S128"
target triple = "x86_64-pc-linux-gnu"

%class.GuardedMemory = type { ptr, ptr }
%"class.GuardedMemory::Guard" = type { [16 x i8] }
%"class.GuardedMemory::GuardHeader" = type { %"class.GuardedMemory::Guard", %union.anon, ptr }
%union.anon = type { i64 }

@_ZTV13GuardedMemory = hidden unnamed_addr constant { [3 x ptr] } { [3 x ptr] [ptr null, ptr null, ptr @_ZNK13GuardedMemory8print_onEP12outputStream] }, align 8

; Function Attrs: mustprogress nounwind uwtable
define linkonce_odr hidden noundef i64 @_ZNK13GuardedMemory11GuardHeader13get_user_sizeEv(ptr noundef nonnull align 8 dereferenceable(32) %0) #1 comdat align 2 {
  %2 = alloca ptr, align 8
  store ptr %0, ptr %2, align 8
  %3 = load ptr, ptr %2, align 8
  %4 = getelementptr inbounds %"class.GuardedMemory::GuardHeader", ptr %3, i32 0, i32 1
  %5 = load i64, ptr %4, align 8
  ret i64 %5
}

; Function Attrs: mustprogress nounwind uwtable
define linkonce_odr hidden void @_ZN13GuardedMemory11GuardHeader7set_tagEPKv(ptr noundef nonnull align 8 dereferenceable(32) %0, ptr noundef %1) #1 comdat align 2 {
  %3 = alloca ptr, align 8
  %4 = alloca ptr, align 8
  store ptr %0, ptr %3, align 8
  store ptr %1, ptr %4, align 8
  %5 = load ptr, ptr %3, align 8
  %6 = load ptr, ptr %4, align 8
  %7 = getelementptr inbounds %"class.GuardedMemory::GuardHeader", ptr %5, i32 0, i32 2
  store ptr %6, ptr %7, align 8
  ret void
}

; Function Attrs: mustprogress nounwind uwtable
define linkonce_odr hidden noundef i64 @_ZNK13GuardedMemory13get_user_sizeEv(ptr noundef nonnull align 8 dereferenceable(16) %0) #1 comdat align 2 {
  %2 = alloca ptr, align 8
  store ptr %0, ptr %2, align 8
  %3 = load ptr, ptr %2, align 8
  %4 = call noundef ptr @_ZNK13GuardedMemory14get_head_guardEv(ptr noundef nonnull align 8 dereferenceable(16) %3)
  %5 = call noundef i64 @_ZNK13GuardedMemory11GuardHeader13get_user_sizeEv(ptr noundef nonnull align 8 dereferenceable(32) %4)
  ret i64 %5
}

; Function Attrs: mustprogress nounwind uwtable
define linkonce_odr hidden void @_ZN13GuardedMemory14set_user_bytesEh(ptr noundef nonnull align 8 dereferenceable(16) %0, i8 noundef zeroext %1) #1 comdat align 2 {
  %3 = alloca ptr, align 8
  %4 = alloca i8, align 1
  store ptr %0, ptr %3, align 8
  store i8 %1, ptr %4, align 1
  %5 = load ptr, ptr %3, align 8
  %6 = call noundef ptr @_ZNK13GuardedMemory12get_user_ptrEv(ptr noundef nonnull align 8 dereferenceable(16) %5)
  %7 = load i8, ptr %4, align 1
  %8 = zext i8 %7 to i32
  %9 = trunc i32 %8 to i8
  %10 = call noundef i64 @_ZNK13GuardedMemory13get_user_sizeEv(ptr noundef nonnull align 8 dereferenceable(16) %5)
  call void @llvm.memset.p0.i64(ptr align 1 %6, i8 %9, i64 %10, i1 false)
  ret void
}

; Function Attrs: mustprogress nounwind uwtable
define linkonce_odr hidden void @_ZN13GuardedMemory7set_tagEPKv(ptr noundef nonnull align 8 dereferenceable(16) %0, ptr noundef %1) #1 comdat align 2 {
  %3 = alloca ptr, align 8
  %4 = alloca ptr, align 8
  store ptr %0, ptr %3, align 8
  store ptr %1, ptr %4, align 8
  %5 = load ptr, ptr %3, align 8
  %6 = call noundef ptr @_ZNK13GuardedMemory14get_head_guardEv(ptr noundef nonnull align 8 dereferenceable(16) %5)
  %7 = load ptr, ptr %4, align 8
  call void @_ZN13GuardedMemory11GuardHeader7set_tagEPKv(ptr noundef nonnull align 8 dereferenceable(32) %6, ptr noundef %7)
  ret void
}

; Function Attrs: mustprogress nounwind uwtable
define linkonce_odr hidden noundef ptr @_ZNK13GuardedMemory14get_tail_guardEv(ptr noundef nonnull align 8 dereferenceable(16) %0) #1 comdat align 2 {
  %2 = alloca ptr, align 8
  store ptr %0, ptr %2, align 8
  %3 = load ptr, ptr %2, align 8
  %4 = call noundef ptr @_ZNK13GuardedMemory12get_user_ptrEv(ptr noundef nonnull align 8 dereferenceable(16) %3)
  %5 = call noundef i64 @_ZNK13GuardedMemory13get_user_sizeEv(ptr noundef nonnull align 8 dereferenceable(16) %3)
  %6 = getelementptr inbounds i8, ptr %4, i64 %5
  ret ptr %6
}

; Function Attrs: mustprogress nounwind uwtable
define linkonce_odr hidden void @_ZN13GuardedMemory11GuardHeader13set_user_sizeEm(ptr noundef nonnull align 8 dereferenceable(32) %0, i64 noundef %1) #1 comdat align 2 {
  %3 = alloca ptr, align 8
  %4 = alloca i64, align 8
  store ptr %0, ptr %3, align 8
  store i64 %1, ptr %4, align 8
  %5 = load ptr, ptr %3, align 8
  %6 = load i64, ptr %4, align 8
  %7 = getelementptr inbounds %"class.GuardedMemory::GuardHeader", ptr %5, i32 0, i32 1
  store i64 %6, ptr %7, align 8
  ret void
}

; Function Attrs: mustprogress nounwind uwtable
define linkonce_odr hidden void @_ZN13GuardedMemory5Guard5buildEv(ptr noundef nonnull align 1 dereferenceable(16) %0) #1 comdat align 2 {
  %2 = alloca ptr, align 8
  %3 = alloca ptr, align 8
  %4 = alloca ptr, align 8
  store ptr %0, ptr %2, align 8
  %5 = load ptr, ptr %2, align 8
  %6 = getelementptr inbounds %"class.GuardedMemory::Guard", ptr %5, i32 0, i32 0
  %7 = getelementptr inbounds [16 x i8], ptr %6, i64 0, i64 0
  store ptr %7, ptr %3, align 8
  %8 = load ptr, ptr %3, align 8
  %9 = getelementptr inbounds i8, ptr %8, i64 16
  store ptr %9, ptr %4, align 8
  br label %10

10:                                               ; preds = %14, %1
  %11 = load ptr, ptr %3, align 8
  %12 = load ptr, ptr %4, align 8
  %13 = icmp ult ptr %11, %12
  br i1 %13, label %14, label %18

14:                                               ; preds = %10
  %15 = load ptr, ptr %3, align 8
  store i8 -85, ptr %15, align 1
  %16 = load ptr, ptr %3, align 8
  %17 = getelementptr inbounds i8, ptr %16, i32 1
  store ptr %17, ptr %3, align 8
  br label %10, !llvm.loop !8

18:                                               ; preds = %10
  ret void
}

; Function Attrs: mustprogress nounwind uwtable
define linkonce_odr hidden noundef ptr @_ZNK13GuardedMemory14get_head_guardEv(ptr noundef nonnull align 8 dereferenceable(16) %0) #1 comdat align 2 {
  %2 = alloca ptr, align 8
  store ptr %0, ptr %2, align 8
  %3 = load ptr, ptr %2, align 8
  %4 = getelementptr inbounds %class.GuardedMemory, ptr %3, i32 0, i32 1
  %5 = load ptr, ptr %4, align 8
  ret ptr %5
}

; Function Attrs: mustprogress nounwind uwtable
define linkonce_odr hidden noundef ptr @_ZN13GuardedMemory16wrap_with_guardsEPvmPKv(ptr noundef nonnull align 8 dereferenceable(16) %0, ptr noundef %1, i64 noundef %2, ptr noundef %3) #1 comdat align 2 {
  %5 = alloca ptr, align 8
  %6 = alloca ptr, align 8
  %7 = alloca i64, align 8
  %8 = alloca ptr, align 8
  store ptr %0, ptr %5, align 8
  store ptr %1, ptr %6, align 8
  store i64 %2, ptr %7, align 8
  store ptr %3, ptr %8, align 8
  %9 = load ptr, ptr %5, align 8
  %10 = load ptr, ptr %6, align 8
  %11 = getelementptr inbounds %class.GuardedMemory, ptr %9, i32 0, i32 1
  store ptr %10, ptr %11, align 8
  %12 = call noundef ptr @_ZNK13GuardedMemory14get_head_guardEv(ptr noundef nonnull align 8 dereferenceable(16) %9)
  call void @_ZN13GuardedMemory5Guard5buildEv(ptr noundef nonnull align 1 dereferenceable(16) %12)
  %13 = call noundef ptr @_ZNK13GuardedMemory14get_head_guardEv(ptr noundef nonnull align 8 dereferenceable(16) %9)
  %14 = load i64, ptr %7, align 8
  call void @_ZN13GuardedMemory11GuardHeader13set_user_sizeEm(ptr noundef nonnull align 8 dereferenceable(32) %13, i64 noundef %14)
  %15 = call noundef ptr @_ZNK13GuardedMemory14get_tail_guardEv(ptr noundef nonnull align 8 dereferenceable(16) %9)
  call void @_ZN13GuardedMemory5Guard5buildEv(ptr noundef nonnull align 1 dereferenceable(16) %15)
  %16 = load ptr, ptr %8, align 8
  call void @_ZN13GuardedMemory7set_tagEPKv(ptr noundef nonnull align 8 dereferenceable(16) %9, ptr noundef %16)
  call void @_ZN13GuardedMemory14set_user_bytesEh(ptr noundef nonnull align 8 dereferenceable(16) %9, i8 noundef zeroext -15)
  %17 = call noundef ptr @_ZNK13GuardedMemory12get_user_ptrEv(ptr noundef nonnull align 8 dereferenceable(16) %9)
  ret ptr %17
}

; Function Attrs: mustprogress nounwind uwtable
define linkonce_odr hidden noundef ptr @_ZNK13GuardedMemory12get_user_ptrEv(ptr noundef nonnull align 8 dereferenceable(16) %0) #1 comdat align 2 {
  %2 = alloca ptr, align 8
  store ptr %0, ptr %2, align 8
  %3 = load ptr, ptr %2, align 8
  %4 = getelementptr inbounds %class.GuardedMemory, ptr %3, i32 0, i32 1
  %5 = load ptr, ptr %4, align 8
  %6 = getelementptr inbounds i8, ptr %5, i64 32
  ret ptr %6
}

; Function Attrs: mustprogress nounwind uwtable
define linkonce_odr hidden void @_ZN13GuardedMemoryC2EPvmPKv(ptr noundef nonnull align 8 dereferenceable(16) %0, ptr noundef %1, i64 noundef %2, ptr noundef %3) unnamed_addr #1 comdat align 2 {
  %5 = alloca ptr, align 8
  %6 = alloca ptr, align 8
  %7 = alloca i64, align 8
  %8 = alloca ptr, align 8
  store ptr %0, ptr %5, align 8
  store ptr %1, ptr %6, align 8
  store i64 %2, ptr %7, align 8
  store ptr %3, ptr %8, align 8
  %9 = load ptr, ptr %5, align 8
  store ptr getelementptr inbounds inrange(-16, 8) ({ [3 x ptr] }, ptr @_ZTV13GuardedMemory, i32 0, i32 0, i32 2), ptr %9, align 8
  %10 = load ptr, ptr %6, align 8
  %11 = load i64, ptr %7, align 8
  %12 = load ptr, ptr %8, align 8
  %13 = call noundef ptr @_ZN13GuardedMemory16wrap_with_guardsEPvmPKv(ptr noundef nonnull align 8 dereferenceable(16) %9, ptr noundef %10, i64 noundef %11, ptr noundef %12)
  ret void
}

; Function Attrs: mustprogress nounwind uwtable
define linkonce_odr hidden noundef i64 @_ZN13GuardedMemory14get_total_sizeEm(i64 noundef %0) #1 comdat align 2 {
  %2 = alloca i64, align 8
  %3 = alloca i64, align 8
  store i64 %0, ptr %2, align 8
  %4 = load i64, ptr %2, align 8
  %5 = add i64 32, %4
  %6 = add i64 %5, 16
  store i64 %6, ptr %3, align 8
  %7 = load i64, ptr %3, align 8
  ret i64 %7
}

; Function Attrs: mustprogress nounwind uwtable
define hidden noundef ptr @_ZN13GuardedMemory9wrap_copyEPKvmS1_(ptr noundef %0, i64 noundef %1, ptr noundef %2) #1 align 2 {
  %4 = alloca ptr, align 8
  %5 = alloca ptr, align 8
  %6 = alloca i64, align 8
  %7 = alloca ptr, align 8
  %8 = alloca i64, align 8
  %9 = alloca ptr, align 8
  %10 = alloca %class.GuardedMemory, align 8
  %11 = alloca ptr, align 8
  store ptr %0, ptr %5, align 8
  store i64 %1, ptr %6, align 8
  store ptr %2, ptr %7, align 8
  %12 = load i64, ptr %6, align 8
  %13 = call noundef i64 @_ZN13GuardedMemory14get_total_sizeEm(i64 noundef %12)
  store i64 %13, ptr %8, align 8
  %14 = load i64, ptr %8, align 8
  %15 = call noundef ptr @_ZN2os6mallocEm8MEMFLAGS(i64 noundef %14, i8 noundef zeroext 9)
  store ptr %15, ptr %9, align 8
  %16 = load ptr, ptr %9, align 8
  %17 = icmp ne ptr %16, null
  br i1 %17, label %18, label %31

18:                                               ; preds = %3
  %19 = load ptr, ptr %9, align 8
  %20 = load i64, ptr %6, align 8
  %21 = load ptr, ptr %7, align 8
  call void @_ZN13GuardedMemoryC2EPvmPKv(ptr noundef nonnull align 8 dereferenceable(16) %10, ptr noundef %19, i64 noundef %20, ptr noundef %21)
  %22 = call noundef ptr @_ZNK13GuardedMemory12get_user_ptrEv(ptr noundef nonnull align 8 dereferenceable(16) %10)
  store ptr %22, ptr %11, align 8
  %23 = load ptr, ptr %5, align 8
  %24 = icmp ne ptr %23, null
  br i1 %24, label %25, label %29

25:                                               ; preds = %18
  %26 = load ptr, ptr %11, align 8
  %27 = load ptr, ptr %5, align 8
  %28 = load i64, ptr %6, align 8
  call void @llvm.memcpy.p0.p0.i64(ptr align 1 %26, ptr align 1 %27, i64 %28, i1 false)
  br label %29

29:                                               ; preds = %25, %18
  %30 = load ptr, ptr %11, align 8
  store ptr %30, ptr %4, align 8
  br label %32

31:                                               ; preds = %3
  store ptr null, ptr %4, align 8
  br label %32

32:                                               ; preds = %31, %29
  %33 = load ptr, ptr %4, align 8
  ret ptr %33
}