; Function Attrs: mustprogress nounwind uwtable
define hidden noundef ptr @_ZN13GuardedMemory9wrap_copyEPKvmS1_(ptr noundef readonly %0, i64 noundef %1, ptr noundef %2) local_unnamed_addr #0 align 2 {
  %4 = add i64 %1, 48
  %5 = tail call noundef ptr @_ZN2os6mallocEm8MEMFLAGS(i64 noundef %4, i8 noundef zeroext 9) #4
  %.not = icmp eq ptr %5, null
  br i1 %.not, label %13, label %6

6:                                                ; preds = %3
  tail call void @llvm.memset.p0.i64(ptr noundef nonnull align 1 dereferenceable(16) %5, i8 -85, i64 16, i1 false)
  %7 = getelementptr inbounds i8, ptr %5, i64 16
  store i64 %1, ptr %7, align 8
  %8 = getelementptr inbounds i8, ptr %5, i64 32
  %9 = getelementptr inbounds i8, ptr %8, i64 %1
  tail call void @llvm.memset.p0.i64(ptr noundef nonnull align 1 dereferenceable(16) %9, i8 -85, i64 16, i1 false)
  %10 = getelementptr inbounds i8, ptr %5, i64 24
  store ptr %2, ptr %10, align 8
  %11 = load i64, ptr %7, align 8
  tail call void @llvm.memset.p0.i64(ptr nonnull align 1 %8, i8 -15, i64 %11, i1 false)
  %.not13 = icmp eq ptr %0, null
  br i1 %.not13, label %13, label %12

12:                                               ; preds = %6
  tail call void @llvm.memcpy.p0.p0.i64(ptr nonnull align 1 %8, ptr nonnull align 1 %0, i64 %1, i1 false)
  br label %13

13:                                               ; preds = %3, %6, %12
  %.0 = phi ptr [ %8, %12 ], [ %8, %6 ], [ null, %3 ]
  ret ptr %.0
}